target datalayout = "e-m:e-p270:32:32-p271:32:32-p272:64:64-i64:64-i128:128-f80:128-n8:16:32:64-S128"
target triple = "x86_64-pc-linux-gnu"

%struct._lv_obj_t = type { ptr, ptr, ptr, ptr, ptr, %struct.lv_area_t, i32, i16, i16 }
%struct.lv_area_t = type { i32, i32, i32, i32 }
%struct._lv_obj_spec_attr_t = type { ptr, ptr, %struct.lv_event_list_t, %struct.lv_point_t, i32, i32, i16, i16 }
%struct.lv_event_list_t = type { %struct._lv_array_t, i8 }
%struct._lv_array_t = type { ptr, i32, i32, i32, i8 }
%struct.lv_point_t = type { i32, i32 }

; Function Attrs: nounwind uwtable
define ptr @lv_obj_get_group(ptr noundef %0) #0 {
  %2 = alloca ptr, align 8
  %3 = alloca ptr, align 8
  store ptr %0, ptr %3, align 8, !tbaa !8
  br label %4

4:                                                ; preds = %1
  %5 = load ptr, ptr %3, align 8, !tbaa !8
  %6 = icmp ne ptr %5, null
  br i1 %6, label %11, label %7

7:                                                ; preds = %4
  br label %8

8:                                                ; preds = %7
  br label %9

9:                                                ; preds = %8
  br label %10

10:                                               ; preds = %9, %10
  br label %10

11:                                               ; preds = %4
  br label %12

12:                                               ; preds = %11
  %13 = load ptr, ptr %3, align 8, !tbaa !8
  %14 = getelementptr inbounds nuw %struct._lv_obj_t, ptr %13, i32 0, i32 2
  %15 = load ptr, ptr %14, align 8, !tbaa !25
  %16 = icmp ne ptr %15, null
  br i1 %16, label %17, label %23

17:                                               ; preds = %12
  %18 = load ptr, ptr %3, align 8, !tbaa !8
  %19 = getelementptr inbounds nuw %struct._lv_obj_t, ptr %18, i32 0, i32 2
  %20 = load ptr, ptr %19, align 8, !tbaa !25
  %21 = getelementptr inbounds nuw %struct._lv_obj_spec_attr_t, ptr %20, i32 0, i32 1
  %22 = load ptr, ptr %21, align 8, !tbaa !47
  store ptr %22, ptr %2, align 8
  br label %24

23:                                               ; preds = %12
  store ptr null, ptr %2, align 8
  br label %24

24:                                               ; preds = %23, %17
  %25 = load ptr, ptr %2, align 8
  ret ptr %25
}

; Function Attrs: nounwind uwtable
define zeroext i1 @lv_obj_has_state(ptr noundef %0, i16 noundef zeroext %1) #0 {
  %3 = alloca ptr, align 8
  %4 = alloca i16, align 2
  store ptr %0, ptr %3, align 8, !tbaa !8
  store i16 %1, ptr %4, align 2, !tbaa !42
  br label %5

5:                                                ; preds = %2
  %6 = load ptr, ptr %3, align 8, !tbaa !8
  %7 = icmp ne ptr %6, null
  br i1 %7, label %12, label %8

8:                                                ; preds = %5
  br label %9

9:                                                ; preds = %8
  br label %10

10:                                               ; preds = %9
  br label %11

11:                                               ; preds = %10, %11
  br label %11

12:                                               ; preds = %5
  br label %13

13:                                               ; preds = %12
  %14 = load ptr, ptr %3, align 8, !tbaa !8
  %15 = getelementptr inbounds nuw %struct._lv_obj_t, ptr %14, i32 0, i32 7
  %16 = load i16, ptr %15, align 4, !tbaa !46
  %17 = zext i16 %16 to i32
  %18 = load i16, ptr %4, align 2, !tbaa !42
  %19 = zext i16 %18 to i32
  %20 = and i32 %17, %19
  %21 = icmp ne i32 %20, 0
  %22 = xor i1 %21, true
  %23 = xor i1 %22, true
  ret i1 %23
}

; Function Attrs: nounwind uwtable
define zeroext i1 @lv_obj_has_flag(ptr noundef %0, i32 noundef %1) #0 {
  %3 = alloca ptr, align 8
  %4 = alloca i32, align 4
  store ptr %0, ptr %3, align 8, !tbaa !8
  store i32 %1, ptr %4, align 4, !tbaa !17
  br label %5

5:                                                ; preds = %2
  %6 = load ptr, ptr %3, align 8, !tbaa !8
  %7 = icmp ne ptr %6, null
  br i1 %7, label %12, label %8

8:                                                ; preds = %5
  br label %9

9:                                                ; preds = %8
  br label %10

10:                                               ; preds = %9
  br label %11

11:                                               ; preds = %10, %11
  br label %11

12:                                               ; preds = %5
  br label %13

13:                                               ; preds = %12
  %14 = load ptr, ptr %3, align 8, !tbaa !8
  %15 = getelementptr inbounds nuw %struct._lv_obj_t, ptr %14, i32 0, i32 6
  %16 = load i32, ptr %15, align 8, !tbaa !22
  %17 = load i32, ptr %4, align 4, !tbaa !17
  %18 = and i32 %16, %17
  %19 = load i32, ptr %4, align 4, !tbaa !17
  %20 = icmp eq i32 %18, %19
  ret i1 %20
}

; Function Attrs: nounwind uwtable
define void @lv_obj_add_flag(ptr noundef %0, i32 noundef %1) #0 {
  %3 = alloca ptr, align 8
  %4 = alloca i32, align 4
  %5 = alloca i8, align 1
  %6 = alloca ptr, align 8
  %7 = alloca ptr, align 8
  %8 = alloca %struct.lv_area_t, align 4
  %9 = alloca %struct.lv_area_t, align 4
  store ptr %0, ptr %3, align 8, !tbaa !8
  store i32 %1, ptr %4, align 4, !tbaa !17
  br label %10

10:                                               ; preds = %2
  %11 = load ptr, ptr %3, align 8, !tbaa !8
  %12 = icmp ne ptr %11, null
  br i1 %12, label %17, label %13

13:                                               ; preds = %10
  br label %14

14:                                               ; preds = %13
  br label %15

15:                                               ; preds = %14
  br label %16

16:                                               ; preds = %15, %16
  br label %16

17:                                               ; preds = %10
  br label %18

18:                                               ; preds = %17
  %19 = load ptr, ptr %3, align 8, !tbaa !8
  %20 = load i32, ptr %4, align 4, !tbaa !17
  %21 = call zeroext i1 @lv_obj_has_flag(ptr noundef %19, i32 noundef %20)
  br i1 %21, label %22, label %23

22:                                               ; preds = %18
  br label %85

23:                                               ; preds = %18
  call void @llvm.lifetime.start.p0(i64 1, ptr %5) #5
  %24 = load ptr, ptr %3, align 8, !tbaa !8
  %25 = call zeroext i1 @lv_obj_is_layout_positioned(ptr noundef %24)
  %26 = zext i1 %25 to i8
  store i8 %26, ptr %5, align 1, !tbaa !39
  %27 = load i32, ptr %4, align 4, !tbaa !17
  %28 = and i32 %27, 1
  %29 = icmp ne i32 %28, 0
  br i1 %29, label %30, label %32

30:                                               ; preds = %23
  %31 = load ptr, ptr %3, align 8, !tbaa !8
  call void @lv_obj_invalidate(ptr noundef %31)
  br label %32

32:                                               ; preds = %30, %23
  %33 = load i32, ptr %4, align 4, !tbaa !17
  %34 = load ptr, ptr %3, align 8, !tbaa !8
  %35 = getelementptr inbounds nuw %struct._lv_obj_t, ptr %34, i32 0, i32 6
  %36 = load i32, ptr %35, align 8, !tbaa !22
  %37 = or i32 %36, %33
  store i32 %37, ptr %35, align 8, !tbaa !22
  %38 = load i32, ptr %4, align 4, !tbaa !17
  %39 = and i32 %38, 1
  %40 = icmp ne i32 %39, 0
  br i1 %40, label %41, label %60

41:                                               ; preds = %32
  %42 = load ptr, ptr %3, align 8, !tbaa !8
  %43 = call zeroext i1 @lv_obj_has_state(ptr noundef %42, i16 noundef zeroext 2)
  br i1 %43, label %44, label %59

44:                                               ; preds = %41
  call void @llvm.lifetime.start.p0(i64 8, ptr %6) #5
  %45 = load ptr, ptr %3, align 8, !tbaa !8
  %46 = call ptr @lv_obj_get_group(ptr noundef %45)
  store ptr %46, ptr %6, align 8, !tbaa !23
  %47 = load ptr, ptr %6, align 8, !tbaa !23
  %48 = icmp ne ptr %47, null
  br i1 %48, label %49, label %58

49:                                               ; preds = %44
  %50 = load ptr, ptr %6, align 8, !tbaa !23
  call void @lv_group_focus_next(ptr noundef %50)
  call void @llvm.lifetime.start.p0(i64 8, ptr %7) #5
  %51 = load ptr, ptr %6, align 8, !tbaa !23
  %52 = call ptr @lv_group_get_focused(ptr noundef %51)
  store ptr %52, ptr %7, align 8, !tbaa !8
  %53 = load ptr, ptr %7, align 8, !tbaa !8
  %54 = icmp ne ptr %53, null
  br i1 %54, label %55, label %57

55:                                               ; preds = %49
  %56 = load ptr, ptr %7, align 8, !tbaa !8
  call void @lv_obj_invalidate(ptr noundef %56)
  br label %57

57:                                               ; preds = %55, %49
  call void @llvm.lifetime.end.p0(i64 8, ptr %7) #5
  br label %58

58:                                               ; preds = %57, %44
  call void @llvm.lifetime.end.p0(i64 8, ptr %6) #5
  br label %59

59:                                               ; preds = %58, %41
  br label %60

60:                                               ; preds = %59, %32
  %61 = load i8, ptr %5, align 1, !tbaa !39, !range !40, !noundef !41
  %62 = trunc i8 %61 to i1
  %63 = zext i1 %62 to i32
  %64 = load ptr, ptr %3, align 8, !tbaa !8
  %65 = call zeroext i1 @lv_obj_is_layout_positioned(ptr noundef %64)
  %66 = zext i1 %65 to i32
  %67 = icmp ne i32 %63, %66
  br i1 %67, label %72, label %68

68:                                               ; preds = %60
  %69 = load i32, ptr %4, align 4, !tbaa !17
  %70 = and i32 %69, 25165824
  %71 = icmp ne i32 %70, 0
  br i1 %71, label %72, label %76

72:                                               ; preds = %68, %60
  %73 = load ptr, ptr %3, align 8, !tbaa !8
  %74 = call ptr @lv_obj_get_parent(ptr noundef %73)
  call void @lv_obj_mark_layout_as_dirty(ptr noundef %74)
  %75 = load ptr, ptr %3, align 8, !tbaa !8
  call void @lv_obj_mark_layout_as_dirty(ptr noundef %75)
  br label %76

76:                                               ; preds = %72, %68
  %77 = load i32, ptr %4, align 4, !tbaa !17
  %78 = and i32 %77, 16
  %79 = icmp ne i32 %78, 0
  br i1 %79, label %80, label %84

80:                                               ; preds = %76
  call void @llvm.lifetime.start.p0(i64 16, ptr %8) #5
  call void @llvm.lifetime.start.p0(i64 16, ptr %9) #5
  %81 = load ptr, ptr %3, align 8, !tbaa !8
  call void @lv_obj_get_scrollbar_area(ptr noundef %81, ptr noundef %8, ptr noundef %9)
  %82 = load ptr, ptr %3, align 8, !tbaa !8
  call void @lv_obj_invalidate_area(ptr noundef %82, ptr noundef %8)
  %83 = load ptr, ptr %3, align 8, !tbaa !8
  call void @lv_obj_invalidate_area(ptr noundef %83, ptr noundef %9)
  call void @llvm.lifetime.end.p0(i64 16, ptr %9) #5
  call void @llvm.lifetime.end.p0(i64 16, ptr %8) #5
  br label %84

84:                                               ; preds = %80, %76
  call void @llvm.lifetime.end.p0(i64 1, ptr %5) #5
  br label %85

85:                                               ; preds = %84, %22
  ret void
}