; Function Attrs: nounwind uwtable
define void @lv_obj_add_flag(ptr noundef %0, i32 noundef %1) local_unnamed_addr #0 {
  %3 = alloca %struct.lv_area_t, align 4
  %4 = alloca %struct.lv_area_t, align 4
  %.not = icmp eq ptr %0, null
  br i1 %.not, label %.preheader, label %lv_obj_has_flag.exit

.preheader:                                       ; preds = %2, %.preheader
  br label %.preheader

lv_obj_has_flag.exit:                             ; preds = %2
  %5 = getelementptr inbounds nuw i8, ptr %0, i64 56
  %6 = load i32, ptr %5, align 8, !tbaa !19
  %7 = and i32 %6, %1
  %8 = icmp eq i32 %7, %1
  br i1 %8, label %35, label %9

9:                                                ; preds = %lv_obj_has_flag.exit
  %10 = tail call zeroext i1 @lv_obj_is_layout_positioned(ptr noundef nonnull %0) #8
  %11 = and i32 %1, 1
  %.not26 = icmp eq i32 %11, 0
  br i1 %.not26, label %.critedge, label %lv_obj_has_state.exit

lv_obj_has_state.exit:                            ; preds = %9
  tail call void @lv_obj_invalidate(ptr noundef nonnull %0) #8
  %12 = load i32, ptr %5, align 8, !tbaa !19
  %13 = or i32 %12, %1
  store i32 %13, ptr %5, align 8, !tbaa !19
  %14 = getelementptr inbounds nuw i8, ptr %0, i64 60
  %15 = load i16, ptr %14, align 4, !tbaa !31
  %16 = and i16 %15, 2
  %.not39 = icmp eq i16 %16, 0
  br i1 %.not39, label %lv_obj_get_group.exit.thread, label %17

17:                                               ; preds = %lv_obj_has_state.exit
  %18 = getelementptr inbounds nuw i8, ptr %0, i64 16
  %19 = load ptr, ptr %18, align 8, !tbaa !20
  %.not6.i = icmp eq ptr %19, null
  br i1 %.not6.i, label %lv_obj_get_group.exit.thread, label %lv_obj_get_group.exit

lv_obj_get_group.exit:                            ; preds = %17
  %20 = getelementptr inbounds nuw i8, ptr %19, i64 8
  %21 = load ptr, ptr %20, align 8, !tbaa !21
  %.not27 = icmp eq ptr %21, null
  br i1 %.not27, label %lv_obj_get_group.exit.thread, label %22

22:                                               ; preds = %lv_obj_get_group.exit
  tail call void @lv_group_focus_next(ptr noundef nonnull %21) #8
  %23 = tail call ptr @lv_group_get_focused(ptr noundef nonnull %21) #8
  %.not28 = icmp eq ptr %23, null
  br i1 %.not28, label %lv_obj_get_group.exit.thread, label %24

24:                                               ; preds = %22
  tail call void @lv_obj_invalidate(ptr noundef nonnull %23) #8
  br label %lv_obj_get_group.exit.thread

.critedge:                                        ; preds = %9
  %25 = load i32, ptr %5, align 8, !tbaa !19
  %26 = or i32 %25, %1
  store i32 %26, ptr %5, align 8, !tbaa !19
  br label %lv_obj_get_group.exit.thread

lv_obj_get_group.exit.thread:                     ; preds = %17, %lv_obj_get_group.exit, %24, %22, %.critedge, %lv_obj_has_state.exit
  %27 = tail call zeroext i1 @lv_obj_is_layout_positioned(ptr noundef nonnull %0) #8
  %28 = xor i1 %10, %27
  %29 = and i32 %1, 25165824
  %.not30 = icmp ne i32 %29, 0
  %or.cond.not = or i1 %.not30, %28
  br i1 %or.cond.not, label %30, label %32

30:                                               ; preds = %lv_obj_get_group.exit.thread
  %31 = tail call ptr @lv_obj_get_parent(ptr noundef nonnull %0) #8
  tail call void @lv_obj_mark_layout_as_dirty(ptr noundef %31) #8
  tail call void @lv_obj_mark_layout_as_dirty(ptr noundef nonnull %0) #8
  br label %32

32:                                               ; preds = %lv_obj_get_group.exit.thread, %30
  %33 = and i32 %1, 16
  %.not31 = icmp eq i32 %33, 0
  br i1 %.not31, label %35, label %34

34:                                               ; preds = %32
  call void @llvm.lifetime.start.p0(i64 16, ptr nonnull %3) #8
  call void @llvm.lifetime.start.p0(i64 16, ptr nonnull %4) #8
  call void @lv_obj_get_scrollbar_area(ptr noundef nonnull %0, ptr noundef nonnull %3, ptr noundef nonnull %4) #8
  call void @lv_obj_invalidate_area(ptr noundef nonnull %0, ptr noundef nonnull %3) #8
  call void @lv_obj_invalidate_area(ptr noundef nonnull %0, ptr noundef nonnull %4) #8
  call void @llvm.lifetime.end.p0(i64 16, ptr nonnull %4) #8
  call void @llvm.lifetime.end.p0(i64 16, ptr nonnull %3) #8
  br label %35

35:                                               ; preds = %32, %34, %lv_obj_has_flag.exit
  ret void
}